target datalayout = "e-m:e-p270:32:32-p271:32:32-p272:64:64-i64:64-i128:128-f80:128-n8:16:32:64-S128"
target triple = "x86_64-pc-linux-gnu"

%"class.icu_77::CollationKey" = type { %"class.icu_77::UObject", i32, i32, %"union.icu_77::CollationKey::StackBufferOrFields" }
%"class.icu_77::UObject" = type { ptr }
%"union.icu_77::CollationKey::StackBufferOrFields" = type { %struct.anon, [16 x i8] }
%struct.anon = type { ptr, i32 }

; Function Attrs: mustprogress nounwind uwtable
define linkonce_odr noundef i32 @_ZNK6icu_7712CollationKey9getLengthEv(ptr noundef nonnull align 8 dereferenceable(48) %0) #0 comdat align 2 {
  %2 = alloca ptr, align 8
  store ptr %0, ptr %2, align 8, !tbaa !3
  %3 = load ptr, ptr %2, align 8
  %4 = getelementptr inbounds nuw %"class.icu_77::CollationKey", ptr %3, i32 0, i32 1
  %5 = load i32, ptr %4, align 8, !tbaa !10
  %6 = and i32 %5, 2147483647
  ret i32 %6
}

; Function Attrs: mustprogress nounwind uwtable
define linkonce_odr noundef ptr @_ZNK6icu_7712CollationKey8getBytesEv(ptr noundef nonnull align 8 dereferenceable(48) %0) #0 comdat align 2 {
  %2 = alloca ptr, align 8
  store ptr %0, ptr %2, align 8, !tbaa !3
  %3 = load ptr, ptr %2, align 8
  %4 = getelementptr inbounds nuw %"class.icu_77::CollationKey", ptr %3, i32 0, i32 1
  %5 = load i32, ptr %4, align 8, !tbaa !10
  %6 = icmp sge i32 %5, 0
  br i1 %6, label %7, label %10

7:                                                ; preds = %1
  %8 = getelementptr inbounds nuw %"class.icu_77::CollationKey", ptr %3, i32 0, i32 3
  %9 = getelementptr inbounds [32 x i8], ptr %8, i64 0, i64 0
  br label %14

10:                                               ; preds = %1
  %11 = getelementptr inbounds nuw %"class.icu_77::CollationKey", ptr %3, i32 0, i32 3
  %12 = getelementptr inbounds nuw %struct.anon, ptr %11, i32 0, i32 0
  %13 = load ptr, ptr %12, align 8, !tbaa !20
  br label %14

14:                                               ; preds = %10, %7
  %15 = phi ptr [ %9, %7 ], [ %13, %10 ]
  ret ptr %15
}

; Function Attrs: inlinehint mustprogress nounwind uwtable
define internal noundef signext i8 @_ZL9U_SUCCESS10UErrorCode(i32 noundef %0) #2 {
  %2 = alloca i32, align 4
  store i32 %0, ptr %2, align 4, !tbaa !21
  %3 = load i32, ptr %2, align 4, !tbaa !21
  %4 = icmp sle i32 %3, 0
  %5 = zext i1 %4 to i8
  ret i8 %5
}

; Function Attrs: mustprogress uwtable
define noundef i32 @_ZNK6icu_7712CollationKey9compareToERKS0_R10UErrorCode(ptr noundef nonnull align 8 dereferenceable(48) %0, ptr noundef nonnull align 8 dereferenceable(48) %1, ptr noundef nonnull align 4 dereferenceable(4) %2) #3 align 2 {
  %4 = alloca i32, align 4
  %5 = alloca ptr, align 8
  %6 = alloca ptr, align 8
  %7 = alloca ptr, align 8
  %8 = alloca ptr, align 8
  %9 = alloca ptr, align 8
  %10 = alloca i32, align 4
  %11 = alloca i32, align 4
  %12 = alloca i32, align 4
  %13 = alloca i32, align 4
  %14 = alloca i32, align 4
  store ptr %0, ptr %5, align 8, !tbaa !3
  store ptr %1, ptr %6, align 8, !tbaa !3
  store ptr %2, ptr %7, align 8, !tbaa !23
  %15 = load ptr, ptr %5, align 8
  %16 = load ptr, ptr %7, align 8, !tbaa !23
  %17 = load i32, ptr %16, align 4, !tbaa !21
  %18 = call noundef signext i8 @_ZL9U_SUCCESS10UErrorCode(i32 noundef %17)
  %19 = icmp ne i8 %18, 0
  br i1 %19, label %20, label %69

20:                                               ; preds = %3
  call void @llvm.lifetime.start.p0(i64 8, ptr %8) #11
  %21 = call noundef ptr @_ZNK6icu_7712CollationKey8getBytesEv(ptr noundef nonnull align 8 dereferenceable(48) %15)
  store ptr %21, ptr %8, align 8, !tbaa !17
  call void @llvm.lifetime.start.p0(i64 8, ptr %9) #11
  %22 = load ptr, ptr %6, align 8, !tbaa !3
  %23 = call noundef ptr @_ZNK6icu_7712CollationKey8getBytesEv(ptr noundef nonnull align 8 dereferenceable(48) %22)
  store ptr %23, ptr %9, align 8, !tbaa !17
  %24 = load ptr, ptr %8, align 8, !tbaa !17
  %25 = load ptr, ptr %9, align 8, !tbaa !17
  %26 = icmp eq ptr %24, %25
  br i1 %26, label %27, label %28

27:                                               ; preds = %20
  store i32 0, ptr %4, align 4
  store i32 1, ptr %10, align 4
  br label %68

28:                                               ; preds = %20
  call void @llvm.lifetime.start.p0(i64 4, ptr %11) #11
  call void @llvm.lifetime.start.p0(i64 4, ptr %12) #11
  %29 = call noundef i32 @_ZNK6icu_7712CollationKey9getLengthEv(ptr noundef nonnull align 8 dereferenceable(48) %15)
  store i32 %29, ptr %12, align 4, !tbaa !19
  call void @llvm.lifetime.start.p0(i64 4, ptr %13) #11
  %30 = load ptr, ptr %6, align 8, !tbaa !3
  %31 = call noundef i32 @_ZNK6icu_7712CollationKey9getLengthEv(ptr noundef nonnull align 8 dereferenceable(48) %30)
  store i32 %31, ptr %13, align 4, !tbaa !19
  %32 = load i32, ptr %12, align 4, !tbaa !19
  %33 = load i32, ptr %13, align 4, !tbaa !19
  %34 = icmp slt i32 %32, %33
  br i1 %34, label %35, label %36

35:                                               ; preds = %28
  store i32 -1, ptr %11, align 4, !tbaa !24
  br label %44

36:                                               ; preds = %28
  %37 = load i32, ptr %12, align 4, !tbaa !19
  %38 = load i32, ptr %13, align 4, !tbaa !19
  %39 = icmp eq i32 %37, %38
  br i1 %39, label %40, label %41

40:                                               ; preds = %36
  store i32 0, ptr %11, align 4, !tbaa !24
  br label %43

41:                                               ; preds = %36
  %42 = load i32, ptr %13, align 4, !tbaa !19
  store i32 %42, ptr %12, align 4, !tbaa !19
  store i32 1, ptr %11, align 4, !tbaa !24
  br label %43

43:                                               ; preds = %41, %40
  br label %44

44:                                               ; preds = %43, %35
  %45 = load i32, ptr %12, align 4, !tbaa !19
  %46 = icmp sgt i32 %45, 0
  br i1 %46, label %47, label %65

47:                                               ; preds = %44
  call void @llvm.lifetime.start.p0(i64 4, ptr %14) #11
  %48 = load ptr, ptr %8, align 8, !tbaa !17
  %49 = load ptr, ptr %9, align 8, !tbaa !17
  %50 = load i32, ptr %12, align 4, !tbaa !19
  %51 = sext i32 %50 to i64
  %52 = call i32 @memcmp(ptr noundef %48, ptr noundef %49, i64 noundef %51) #14
  store i32 %52, ptr %14, align 4, !tbaa !19
  %53 = load i32, ptr %14, align 4, !tbaa !19
  %54 = icmp sgt i32 %53, 0
  br i1 %54, label %55, label %56

55:                                               ; preds = %47
  store i32 1, ptr %4, align 4
  store i32 1, ptr %10, align 4
  br label %62

56:                                               ; preds = %47
  %57 = load i32, ptr %14, align 4, !tbaa !19
  %58 = icmp slt i32 %57, 0
  br i1 %58, label %59, label %60

59:                                               ; preds = %56
  store i32 -1, ptr %4, align 4
  store i32 1, ptr %10, align 4
  br label %62

60:                                               ; preds = %56
  br label %61

61:                                               ; preds = %60
  store i32 0, ptr %10, align 4
  br label %62

62:                                               ; preds = %61, %59, %55
  call void @llvm.lifetime.end.p0(i64 4, ptr %14) #11
  %63 = load i32, ptr %10, align 4
  switch i32 %63, label %67 [
    i32 0, label %64
  ]

64:                                               ; preds = %62
  br label %65

65:                                               ; preds = %64, %44
  %66 = load i32, ptr %11, align 4, !tbaa !24
  store i32 %66, ptr %4, align 4
  store i32 1, ptr %10, align 4
  br label %67

67:                                               ; preds = %65, %62
  call void @llvm.lifetime.end.p0(i64 4, ptr %13) #11
  call void @llvm.lifetime.end.p0(i64 4, ptr %12) #11
  call void @llvm.lifetime.end.p0(i64 4, ptr %11) #11
  br label %68

68:                                               ; preds = %67, %27
  call void @llvm.lifetime.end.p0(i64 8, ptr %9) #11
  call void @llvm.lifetime.end.p0(i64 8, ptr %8) #11
  br label %70

69:                                               ; preds = %3
  store i32 0, ptr %4, align 4
  br label %70

70:                                               ; preds = %69, %68
  %71 = load i32, ptr %4, align 4
  ret i32 %71
}

; Function Attrs: mustprogress uwtable
define noundef i32 @_ZNK6icu_7712CollationKey9compareToERKS0_(ptr noundef nonnull align 8 dereferenceable(48) %0, ptr noundef nonnull align 8 dereferenceable(48) %1) #3 align 2 {
  %3 = alloca ptr, align 8
  %4 = alloca ptr, align 8
  %5 = alloca i32, align 4
  store ptr %0, ptr %3, align 8, !tbaa !3
  store ptr %1, ptr %4, align 8, !tbaa !3
  %6 = load ptr, ptr %3, align 8
  call void @llvm.lifetime.start.p0(i64 4, ptr %5) #11
  store i32 0, ptr %5, align 4, !tbaa !21
  %7 = load ptr, ptr %4, align 8, !tbaa !3
  %8 = call noundef i32 @_ZNK6icu_7712CollationKey9compareToERKS0_R10UErrorCode(ptr noundef nonnull align 8 dereferenceable(48) %6, ptr noundef nonnull align 8 dereferenceable(48) %7, ptr noundef nonnull align 4 dereferenceable(4) %5)
  call void @llvm.lifetime.end.p0(i64 4, ptr %5) #11
  ret i32 %8
}