; Function Attrs: mustprogress nofree nounwind willreturn memory(read, inaccessiblemem: none) uwtable
define noundef i32 @_ZNK6icu_7712CollationKey9compareToERKS0_(ptr noundef nonnull readonly align 8 dereferenceable(48) %0, ptr noundef nonnull readonly align 8 dereferenceable(48) %1) local_unnamed_addr #11 align 2 {
  %3 = getelementptr inbounds nuw i8, ptr %0, i64 8
  %4 = load i32, ptr %3, align 8, !tbaa !6
  %5 = getelementptr inbounds nuw i8, ptr %0, i64 16
  %6 = load ptr, ptr %5, align 8
  %7 = icmp slt i32 %4, 0
  %8 = select i1 %7, ptr %6, ptr %5
  %9 = getelementptr inbounds nuw i8, ptr %1, i64 8
  %10 = load i32, ptr %9, align 8, !tbaa !6
  %11 = getelementptr inbounds nuw i8, ptr %1, i64 16
  %12 = load ptr, ptr %11, align 8
  %13 = icmp slt i32 %10, 0
  %14 = select i1 %13, ptr %12, ptr %11
  %15 = icmp eq ptr %8, %14
  br i1 %15, label %_ZNK6icu_7712CollationKey9compareToERKS0_R10UErrorCode.exit, label %16

16:                                               ; preds = %2
  %17 = and i32 %4, 2147483647
  %18 = and i32 %10, 2147483647
  %.021.i = tail call i32 @llvm.ucmp.i32.i32(i32 %17, i32 %18)
  %.020.i = tail call i32 @llvm.umin.i32(i32 %17, i32 %18)
  %.not.i = icmp eq i32 %.020.i, 0
  br i1 %.not.i, label %24, label %19

19:                                               ; preds = %16
  %20 = zext nneg i32 %.020.i to i64
  %21 = tail call i32 @memcmp(ptr noundef %8, ptr noundef %14, i64 noundef %20) #18
  %22 = icmp sgt i32 %21, 0
  br i1 %22, label %_ZNK6icu_7712CollationKey9compareToERKS0_R10UErrorCode.exit, label %23

23:                                               ; preds = %19
  %.not33.i = icmp eq i32 %21, 0
  br i1 %.not33.i, label %24, label %_ZNK6icu_7712CollationKey9compareToERKS0_R10UErrorCode.exit

24:                                               ; preds = %23, %16
  br label %_ZNK6icu_7712CollationKey9compareToERKS0_R10UErrorCode.exit

_ZNK6icu_7712CollationKey9compareToERKS0_R10UErrorCode.exit: ; preds = %2, %19, %23, %24
  %.3.i = phi i32 [ 0, %2 ], [ %.021.i, %24 ], [ -1, %23 ], [ 1, %19 ]
  ret i32 %.3.i
}